; Function Attrs: mustprogress nofree norecurse nosync nounwind willreturn memory(write, argmem: readwrite, inaccessiblemem: none) uwtable
define noundef i32 @SUNAdaptController_SetParams_PID(ptr noundef readonly captures(none) %0, double noundef %1, double noundef %2, double noundef %3) local_unnamed_addr #3 {
  %5 = load ptr, ptr %0, align 8, !tbaa !19
  store double %1, ptr %5, align 8, !tbaa !20
  %6 = getelementptr inbounds nuw i8, ptr %5, i64 8
  store double %2, ptr %6, align 8, !tbaa !24
  %7 = getelementptr inbounds nuw i8, ptr %5, i64 16
  store double %3, ptr %7, align 8, !tbaa !25
  %8 = getelementptr inbounds nuw i8, ptr %5, i64 24
  tail call void @llvm.memset.p0.i64(ptr noundef nonnull align 8 dereferenceable(16) %8, i8 0, i64 16, i1 false)
  ret i32 0
}